target datalayout = "e-m:e-p270:32:32-p271:32:32-p272:64:64-i64:64-i128:128-f80:128-n8:16:32:64-S128"
target triple = "x86_64-pc-linux-gnu"

%"class.google::protobuf::internal::LogMessage" = type { i32, ptr, i32, %"class.std::__cxx11::basic_string" }
%"class.std::__cxx11::basic_string" = type { %"struct.std::__cxx11::basic_string<char>::_Alloc_hider", i64, %union.anon }
%"struct.std::__cxx11::basic_string<char>::_Alloc_hider" = type { ptr }
%union.anon = type { i64, [8 x i8] }
%"class.google::protobuf::internal::LogFinisher" = type { i8 }
%"class.google::protobuf::io::EpsCopyOutputStream" = type <{ ptr, ptr, [32 x i8], ptr, i8, i8, i8, [5 x i8] }>

@.str.14 = private unnamed_addr constant [27 x i8] c"CHECK failed: ptr < end_: \00", align 1
@.str.20 = private unnamed_addr constant [67 x i8] c"src/../third_party/protobuf-lite/google/protobuf/io/coded_stream.h\00", align 1

; Function Attrs: alwaysinline mustprogress nounwind uwtable
define linkonce_odr noundef ptr @_ZN6google8protobuf2io19EpsCopyOutputStream12UnsafeVarintIjEEPhT_S4_(i32 noundef %0, ptr noundef %1) #13 comdat align 2 {
  %3 = alloca ptr, align 8
  %4 = alloca i32, align 4
  %5 = alloca ptr, align 8
  store i32 %0, ptr %4, align 4, !tbaa !18
  store ptr %1, ptr %5, align 8, !tbaa !50
  %6 = load i32, ptr %4, align 4, !tbaa !18
  %7 = icmp ult i32 %6, 128
  br i1 %7, label %8, label %15

8:                                                ; preds = %2
  %9 = load i32, ptr %4, align 4, !tbaa !18
  %10 = trunc i32 %9 to i8
  %11 = load ptr, ptr %5, align 8, !tbaa !50
  %12 = getelementptr inbounds i8, ptr %11, i64 0
  store i8 %10, ptr %12, align 1, !tbaa !29
  %13 = load ptr, ptr %5, align 8, !tbaa !50
  %14 = getelementptr inbounds i8, ptr %13, i64 1
  store ptr %14, ptr %3, align 8
  br label %56

15:                                               ; preds = %2
  %16 = load i32, ptr %4, align 4, !tbaa !18
  %17 = or i32 %16, 128
  %18 = trunc i32 %17 to i8
  %19 = load ptr, ptr %5, align 8, !tbaa !50
  %20 = getelementptr inbounds i8, ptr %19, i64 0
  store i8 %18, ptr %20, align 1, !tbaa !29
  %21 = load i32, ptr %4, align 4, !tbaa !18
  %22 = lshr i32 %21, 7
  store i32 %22, ptr %4, align 4, !tbaa !18
  %23 = load i32, ptr %4, align 4, !tbaa !18
  %24 = icmp ult i32 %23, 128
  br i1 %24, label %25, label %32

25:                                               ; preds = %15
  %26 = load i32, ptr %4, align 4, !tbaa !18
  %27 = trunc i32 %26 to i8
  %28 = load ptr, ptr %5, align 8, !tbaa !50
  %29 = getelementptr inbounds i8, ptr %28, i64 1
  store i8 %27, ptr %29, align 1, !tbaa !29
  %30 = load ptr, ptr %5, align 8, !tbaa !50
  %31 = getelementptr inbounds i8, ptr %30, i64 2
  store ptr %31, ptr %3, align 8
  br label %56

32:                                               ; preds = %15
  %33 = load ptr, ptr %5, align 8, !tbaa !50
  %34 = getelementptr inbounds nuw i8, ptr %33, i32 1
  store ptr %34, ptr %5, align 8, !tbaa !50
  br label %35

35:                                               ; preds = %44, %32
  %36 = load i32, ptr %4, align 4, !tbaa !18
  %37 = or i32 %36, 128
  %38 = trunc i32 %37 to i8
  %39 = load ptr, ptr %5, align 8, !tbaa !50
  store i8 %38, ptr %39, align 1, !tbaa !29
  %40 = load i32, ptr %4, align 4, !tbaa !18
  %41 = lshr i32 %40, 7
  store i32 %41, ptr %4, align 4, !tbaa !18
  %42 = load ptr, ptr %5, align 8, !tbaa !50
  %43 = getelementptr inbounds nuw i8, ptr %42, i32 1
  store ptr %43, ptr %5, align 8, !tbaa !50
  br label %44

44:                                               ; preds = %35
  %45 = load i32, ptr %4, align 4, !tbaa !18
  %46 = icmp uge i32 %45, 128
  %47 = zext i1 %46 to i64
  %48 = call i64 @llvm.expect.i64(i64 %47, i64 0)
  %49 = icmp ne i64 %48, 0
  br i1 %49, label %35, label %50, !llvm.loop !146

50:                                               ; preds = %44
  %51 = load i32, ptr %4, align 4, !tbaa !18
  %52 = trunc i32 %51 to i8
  %53 = load ptr, ptr %5, align 8, !tbaa !50
  %54 = getelementptr inbounds nuw i8, ptr %53, i32 1
  store ptr %54, ptr %5, align 8, !tbaa !50
  store i8 %52, ptr %53, align 1, !tbaa !29
  %55 = load ptr, ptr %5, align 8, !tbaa !50
  store ptr %55, ptr %3, align 8
  br label %56

56:                                               ; preds = %50, %25, %8
  %57 = load ptr, ptr %3, align 8
  ret ptr %57
}

; Function Attrs: mustprogress nounwind uwtable
define available_externally noundef ptr @_ZNKSt7__cxx1112basic_stringIcSt11char_traitsIcESaIcEE7_M_dataEv(ptr noundef nonnull align 8 dereferenceable(32) %0) #4 align 2 {
  %2 = alloca ptr, align 8
  store ptr %0, ptr %2, align 8, !tbaa !44
  %3 = load ptr, ptr %2, align 8
  %4 = getelementptr inbounds nuw %"class.std::__cxx11::basic_string", ptr %3, i32 0, i32 0
  %5 = getelementptr inbounds nuw %"struct.std::__cxx11::basic_string<char>::_Alloc_hider", ptr %4, i32 0, i32 0
  %6 = load ptr, ptr %5, align 8, !tbaa !118
  ret ptr %6
}

; Function Attrs: alwaysinline mustprogress nounwind uwtable
define linkonce_odr noundef ptr @_ZN6google8protobuf2io19EpsCopyOutputStream15UnsafeWriteSizeEjPh(i32 noundef %0, ptr noundef %1) #13 comdat align 2 {
  %3 = alloca i32, align 4
  %4 = alloca ptr, align 8
  store i32 %0, ptr %3, align 4, !tbaa !18
  store ptr %1, ptr %4, align 8, !tbaa !50
  br label %5

5:                                                ; preds = %11, %2
  %6 = load i32, ptr %3, align 4, !tbaa !18
  %7 = icmp uge i32 %6, 128
  %8 = zext i1 %7 to i64
  %9 = call i64 @llvm.expect.i64(i64 %8, i64 0)
  %10 = icmp ne i64 %9, 0
  br i1 %10, label %11, label %20

11:                                               ; preds = %5
  %12 = load i32, ptr %3, align 4, !tbaa !18
  %13 = or i32 %12, 128
  %14 = trunc i32 %13 to i8
  %15 = load ptr, ptr %4, align 8, !tbaa !50
  store i8 %14, ptr %15, align 1, !tbaa !29
  %16 = load i32, ptr %3, align 4, !tbaa !18
  %17 = lshr i32 %16, 7
  store i32 %17, ptr %3, align 4, !tbaa !18
  %18 = load ptr, ptr %4, align 8, !tbaa !50
  %19 = getelementptr inbounds nuw i8, ptr %18, i32 1
  store ptr %19, ptr %4, align 8, !tbaa !50
  br label %5, !llvm.loop !145

20:                                               ; preds = %5
  %21 = load i32, ptr %3, align 4, !tbaa !18
  %22 = trunc i32 %21 to i8
  %23 = load ptr, ptr %4, align 8, !tbaa !50
  %24 = getelementptr inbounds nuw i8, ptr %23, i32 1
  store ptr %24, ptr %4, align 8, !tbaa !50
  store i8 %22, ptr %23, align 1, !tbaa !29
  %25 = load ptr, ptr %4, align 8, !tbaa !50
  ret ptr %25
}

; Function Attrs: alwaysinline mustprogress uwtable
define linkonce_odr noundef ptr @_ZN6google8protobuf2io19EpsCopyOutputStream8WriteTagEjjPh(ptr noundef nonnull align 8 dereferenceable(59) %0, i32 noundef %1, i32 noundef %2, ptr noundef %3) #12 comdat align 2 personality ptr @__gxx_personality_v0 {
  %5 = alloca ptr, align 8
  %6 = alloca i32, align 4
  %7 = alloca i32, align 4
  %8 = alloca ptr, align 8
  %9 = alloca %"class.google::protobuf::internal::LogMessage", align 8
  %10 = alloca i1, align 1
  %11 = alloca i1, align 1
  %12 = alloca ptr, align 8
  %13 = alloca i32, align 4
  %14 = alloca %"class.google::protobuf::internal::LogFinisher", align 1
  store ptr %0, ptr %5, align 8, !tbaa !76
  store i32 %1, ptr %6, align 4, !tbaa !18
  store i32 %2, ptr %7, align 4, !tbaa !18
  store ptr %3, ptr %8, align 8, !tbaa !50
  %15 = load ptr, ptr %5, align 8
  br label %16

16:                                               ; preds = %33, %4
  br i1 false, label %17, label %49

17:                                               ; preds = %16
  %18 = load ptr, ptr %8, align 8, !tbaa !50
  %19 = getelementptr inbounds nuw %"class.google::protobuf::io::EpsCopyOutputStream", ptr %15, i32 0, i32 0
  %20 = load ptr, ptr %19, align 8, !tbaa !82
  %21 = icmp ult ptr %18, %20
  store i1 false, ptr %10, align 1
  store i1 false, ptr %11, align 1
  call void @llvm.lifetime.start.p0(i64 1, ptr %14) #3
  br i1 %21, label %22, label %23

22:                                               ; preds = %17
  br label %27

23:                                               ; preds = %17
  call void @llvm.lifetime.start.p0(i64 56, ptr %9) #3
  store i1 true, ptr %10, align 1
  call void @_ZN6google8protobuf8internal10LogMessageC1ENS0_8LogLevelEPKci(ptr noundef nonnull align 8 dereferenceable(56) %9, i32 noundef 3, ptr noundef @.str.20, i32 noundef 858)
  store i1 true, ptr %11, align 1
  %24 = invoke noundef nonnull align 8 dereferenceable(56) ptr @_ZN6google8protobuf8internal10LogMessagelsEPKc(ptr noundef nonnull align 8 dereferenceable(56) %9, ptr noundef @.str.14)
          to label %25 unwind label %34

25:                                               ; preds = %23
  invoke void @_ZN6google8protobuf8internal11LogFinisheraSERNS1_10LogMessageE(ptr noundef nonnull align 1 dereferenceable(1) %14, ptr noundef nonnull align 8 dereferenceable(56) %24)
          to label %26 unwind label %38

26:                                               ; preds = %25
  br label %27

27:                                               ; preds = %26, %22
  call void @llvm.lifetime.end.p0(i64 1, ptr %14) #3
  %28 = load i1, ptr %11, align 1
  br i1 %28, label %29, label %30

29:                                               ; preds = %27
  call void @_ZN6google8protobuf8internal10LogMessageD1Ev(ptr noundef nonnull align 8 dereferenceable(56) %9) #3
  br label %30

30:                                               ; preds = %29, %27
  %31 = load i1, ptr %10, align 1
  br i1 %31, label %32, label %33

32:                                               ; preds = %30
  call void @llvm.lifetime.end.p0(i64 56, ptr %9) #3
  br label %33

33:                                               ; preds = %32, %30
  br label %16, !llvm.loop !144

34:                                               ; preds = %23
  %35 = landingpad { ptr, i32 }
          cleanup
  %36 = extractvalue { ptr, i32 } %35, 0
  store ptr %36, ptr %12, align 8
  %37 = extractvalue { ptr, i32 } %35, 1
  store i32 %37, ptr %13, align 4
  br label %42

38:                                               ; preds = %25
  %39 = landingpad { ptr, i32 }
          cleanup
  %40 = extractvalue { ptr, i32 } %39, 0
  store ptr %40, ptr %12, align 8
  %41 = extractvalue { ptr, i32 } %39, 1
  store i32 %41, ptr %13, align 4
  call void @llvm.lifetime.end.p0(i64 1, ptr %14) #3
  br label %42

42:                                               ; preds = %38, %34
  %43 = load i1, ptr %11, align 1
  br i1 %43, label %44, label %45

44:                                               ; preds = %42
  call void @_ZN6google8protobuf8internal10LogMessageD1Ev(ptr noundef nonnull align 8 dereferenceable(56) %9) #3
  br label %45

45:                                               ; preds = %44, %42
  %46 = load i1, ptr %10, align 1
  br i1 %46, label %47, label %48

47:                                               ; preds = %45
  call void @llvm.lifetime.end.p0(i64 56, ptr %9) #3
  br label %48

48:                                               ; preds = %47, %45
  br label %56

49:                                               ; preds = %16
  %50 = load i32, ptr %6, align 4, !tbaa !18
  %51 = shl i32 %50, 3
  %52 = load i32, ptr %7, align 4, !tbaa !18
  %53 = or i32 %51, %52
  %54 = load ptr, ptr %8, align 8, !tbaa !50
  %55 = call noundef ptr @_ZN6google8protobuf2io19EpsCopyOutputStream12UnsafeVarintIjEEPhT_S4_(i32 noundef %53, ptr noundef %54)
  ret ptr %55

56:                                               ; preds = %48
  %57 = load ptr, ptr %12, align 8
  %58 = load i32, ptr %13, align 4
  %59 = insertvalue { ptr, i32 } poison, ptr %57, 0
  %60 = insertvalue { ptr, i32 } %59, i32 %58, 1
  resume { ptr, i32 } %60
}

; Function Attrs: mustprogress uwtable
define linkonce_odr noundef ptr @_ZN6google8protobuf2io19EpsCopyOutputStream8WriteRawEPKviPh(ptr noundef nonnull align 8 dereferenceable(59) %0, ptr noundef %1, i32 noundef %2, ptr noundef %3) #5 comdat align 2 {
  %5 = alloca ptr, align 8
  %6 = alloca ptr, align 8
  %7 = alloca ptr, align 8
  %8 = alloca i32, align 4
  %9 = alloca ptr, align 8
  store ptr %0, ptr %6, align 8, !tbaa !76
  store ptr %1, ptr %7, align 8, !tbaa !41
  store i32 %2, ptr %8, align 4, !tbaa !18
  store ptr %3, ptr %9, align 8, !tbaa !50
  %10 = load ptr, ptr %6, align 8
  %11 = getelementptr inbounds nuw %"class.google::protobuf::io::EpsCopyOutputStream", ptr %10, i32 0, i32 0
  %12 = load ptr, ptr %11, align 8, !tbaa !82
  %13 = load ptr, ptr %9, align 8, !tbaa !50
  %14 = ptrtoint ptr %12 to i64
  %15 = ptrtoint ptr %13 to i64
  %16 = sub i64 %14, %15
  %17 = load i32, ptr %8, align 4, !tbaa !18
  %18 = sext i32 %17 to i64
  %19 = icmp slt i64 %16, %18
  %20 = zext i1 %19 to i64
  %21 = call i64 @llvm.expect.i64(i64 %20, i64 0)
  %22 = icmp ne i64 %21, 0
  br i1 %22, label %23, label %28

23:                                               ; preds = %4
  %24 = load ptr, ptr %7, align 8, !tbaa !41
  %25 = load i32, ptr %8, align 4, !tbaa !18
  %26 = load ptr, ptr %9, align 8, !tbaa !50
  %27 = call noundef ptr @_ZN6google8protobuf2io19EpsCopyOutputStream16WriteRawFallbackEPKviPh(ptr noundef nonnull align 8 dereferenceable(59) %10, ptr noundef %24, i32 noundef %25, ptr noundef %26)
  store ptr %27, ptr %5, align 8
  br label %37

28:                                               ; preds = %4
  %29 = load ptr, ptr %9, align 8, !tbaa !50
  %30 = load ptr, ptr %7, align 8, !tbaa !41
  %31 = load i32, ptr %8, align 4, !tbaa !18
  %32 = sext i32 %31 to i64
  call void @llvm.memcpy.p0.p0.i64(ptr align 1 %29, ptr align 1 %30, i64 %32, i1 false)
  %33 = load ptr, ptr %9, align 8, !tbaa !50
  %34 = load i32, ptr %8, align 4, !tbaa !18
  %35 = sext i32 %34 to i64
  %36 = getelementptr inbounds i8, ptr %33, i64 %35
  store ptr %36, ptr %5, align 8
  br label %37

37:                                               ; preds = %28, %23
  %38 = load ptr, ptr %5, align 8
  ret ptr %38
}

; Function Attrs: mustprogress nounwind uwtable
define available_externally noundef ptr @_ZNKSt7__cxx1112basic_stringIcSt11char_traitsIcESaIcEE4dataEv(ptr noundef nonnull align 8 dereferenceable(32) %0) #4 align 2 {
  %2 = alloca ptr, align 8
  store ptr %0, ptr %2, align 8, !tbaa !44
  %3 = load ptr, ptr %2, align 8
  %4 = call noundef ptr @_ZNKSt7__cxx1112basic_stringIcSt11char_traitsIcESaIcEE7_M_dataEv(ptr noundef nonnull align 8 dereferenceable(32) %3)
  ret ptr %4
}

; Function Attrs: alwaysinline mustprogress uwtable
define linkonce_odr noundef ptr @_ZN6google8protobuf2io19EpsCopyOutputStream16WriteLengthDelimEijPh(ptr noundef nonnull align 8 dereferenceable(59) %0, i32 noundef %1, i32 noundef %2, ptr noundef %3) #12 comdat align 2 {
  %5 = alloca ptr, align 8
  %6 = alloca i32, align 4
  %7 = alloca i32, align 4
  %8 = alloca ptr, align 8
  store ptr %0, ptr %5, align 8, !tbaa !76
  store i32 %1, ptr %6, align 4, !tbaa !18
  store i32 %2, ptr %7, align 4, !tbaa !18
  store ptr %3, ptr %8, align 8, !tbaa !50
  %9 = load ptr, ptr %5, align 8
  %10 = load i32, ptr %6, align 4, !tbaa !18
  %11 = load ptr, ptr %8, align 8, !tbaa !50
  %12 = call noundef ptr @_ZN6google8protobuf2io19EpsCopyOutputStream8WriteTagEjjPh(ptr noundef nonnull align 8 dereferenceable(59) %9, i32 noundef %10, i32 noundef 2, ptr noundef %11)
  store ptr %12, ptr %8, align 8, !tbaa !50
  %13 = load i32, ptr %7, align 4, !tbaa !18
  %14 = load ptr, ptr %8, align 8, !tbaa !50
  %15 = call noundef ptr @_ZN6google8protobuf2io19EpsCopyOutputStream15UnsafeWriteSizeEjPh(i32 noundef %13, ptr noundef %14)
  ret ptr %15
}

; Function Attrs: mustprogress nounwind uwtable
define available_externally noundef i64 @_ZNKSt7__cxx1112basic_stringIcSt11char_traitsIcESaIcEE4sizeEv(ptr noundef nonnull align 8 dereferenceable(32) %0) #4 align 2 {
  %2 = alloca ptr, align 8
  store ptr %0, ptr %2, align 8, !tbaa !44
  %3 = load ptr, ptr %2, align 8
  %4 = getelementptr inbounds nuw %"class.std::__cxx11::basic_string", ptr %3, i32 0, i32 1
  %5 = load i64, ptr %4, align 8, !tbaa !102
  ret i64 %5
}

; Function Attrs: mustprogress uwtable
define linkonce_odr noundef ptr @_ZN6google8protobuf2io19EpsCopyOutputStream11EnsureSpaceEPh(ptr noundef nonnull align 8 dereferenceable(59) %0, ptr noundef %1) #5 comdat align 2 {
  %3 = alloca ptr, align 8
  %4 = alloca ptr, align 8
  %5 = alloca ptr, align 8
  store ptr %0, ptr %4, align 8, !tbaa !76
  store ptr %1, ptr %5, align 8, !tbaa !50
  %6 = load ptr, ptr %4, align 8
  %7 = load ptr, ptr %5, align 8, !tbaa !50
  %8 = getelementptr inbounds nuw %"class.google::protobuf::io::EpsCopyOutputStream", ptr %6, i32 0, i32 0
  %9 = load ptr, ptr %8, align 8, !tbaa !82
  %10 = icmp uge ptr %7, %9
  %11 = zext i1 %10 to i64
  %12 = call i64 @llvm.expect.i64(i64 %11, i64 0)
  %13 = icmp ne i64 %12, 0
  br i1 %13, label %14, label %17

14:                                               ; preds = %2
  %15 = load ptr, ptr %5, align 8, !tbaa !50
  %16 = call noundef ptr @_ZN6google8protobuf2io19EpsCopyOutputStream19EnsureSpaceFallbackEPh(ptr noundef nonnull align 8 dereferenceable(59) %6, ptr noundef %15)
  store ptr %16, ptr %3, align 8
  br label %19

17:                                               ; preds = %2
  %18 = load ptr, ptr %5, align 8, !tbaa !50
  store ptr %18, ptr %3, align 8
  br label %19

19:                                               ; preds = %17, %14
  %20 = load ptr, ptr %3, align 8
  ret ptr %20
}

; Function Attrs: mustprogress uwtable
define noundef ptr @_ZN6google8protobuf2io19EpsCopyOutputStream18WriteStringOutlineEjRKNSt7__cxx1112basic_stringIcSt11char_traitsIcESaIcEEEPh(ptr noundef nonnull align 8 dereferenceable(59) %0, i32 noundef %1, ptr noundef nonnull align 8 dereferenceable(32) %2, ptr noundef %3) #5 align 2 {
  %5 = alloca ptr, align 8
  %6 = alloca i32, align 4
  %7 = alloca ptr, align 8
  %8 = alloca ptr, align 8
  %9 = alloca i32, align 4
  store ptr %0, ptr %5, align 8, !tbaa !76
  store i32 %1, ptr %6, align 4, !tbaa !18
  store ptr %2, ptr %7, align 8, !tbaa !44
  store ptr %3, ptr %8, align 8, !tbaa !50
  %10 = load ptr, ptr %5, align 8
  %11 = load ptr, ptr %8, align 8, !tbaa !50
  %12 = call noundef ptr @_ZN6google8protobuf2io19EpsCopyOutputStream11EnsureSpaceEPh(ptr noundef nonnull align 8 dereferenceable(59) %10, ptr noundef %11)
  store ptr %12, ptr %8, align 8, !tbaa !50
  call void @llvm.lifetime.start.p0(i64 4, ptr %9) #3
  %13 = load ptr, ptr %7, align 8, !tbaa !44
  %14 = call noundef i64 @_ZNKSt7__cxx1112basic_stringIcSt11char_traitsIcESaIcEE4sizeEv(ptr noundef nonnull align 8 dereferenceable(32) %13) #3
  %15 = trunc i64 %14 to i32
  store i32 %15, ptr %9, align 4, !tbaa !18
  %16 = load i32, ptr %6, align 4, !tbaa !18
  %17 = load i32, ptr %9, align 4, !tbaa !18
  %18 = load ptr, ptr %8, align 8, !tbaa !50
  %19 = call noundef ptr @_ZN6google8protobuf2io19EpsCopyOutputStream16WriteLengthDelimEijPh(ptr noundef nonnull align 8 dereferenceable(59) %10, i32 noundef %16, i32 noundef %17, ptr noundef %18)
  store ptr %19, ptr %8, align 8, !tbaa !50
  %20 = load ptr, ptr %7, align 8, !tbaa !44
  %21 = call noundef ptr @_ZNKSt7__cxx1112basic_stringIcSt11char_traitsIcESaIcEE4dataEv(ptr noundef nonnull align 8 dereferenceable(32) %20) #3
  %22 = load i32, ptr %9, align 4, !tbaa !18
  %23 = load ptr, ptr %8, align 8, !tbaa !50
  %24 = call noundef ptr @_ZN6google8protobuf2io19EpsCopyOutputStream8WriteRawEPKviPh(ptr noundef nonnull align 8 dereferenceable(59) %10, ptr noundef %21, i32 noundef %22, ptr noundef %23)
  call void @llvm.lifetime.end.p0(i64 4, ptr %9) #3
  ret ptr %24
}