; Function Attrs: mustprogress uwtable
define noundef ptr @_ZN6google8protobuf2io19EpsCopyOutputStream18WriteStringOutlineEjRKNSt7__cxx1112basic_stringIcSt11char_traitsIcESaIcEEEPh(ptr noundef nonnull align 8 dereferenceable(59) %0, i32 noundef %1, ptr noundef nonnull readonly align 8 captures(none) dereferenceable(32) %2, ptr noundef %3) local_unnamed_addr #4 align 2 personality ptr @__gxx_personality_v0 {
  %5 = load ptr, ptr %0, align 8, !tbaa !57
  %.not.i = icmp ult ptr %3, %5
  br i1 %.not.i, label %_ZN6google8protobuf2io19EpsCopyOutputStream11EnsureSpaceEPh.exit, label %6, !prof !26

6:                                                ; preds = %4
  %7 = tail call noundef ptr @_ZN6google8protobuf2io19EpsCopyOutputStream19EnsureSpaceFallbackEPh(ptr noundef nonnull align 8 dereferenceable(59) %0, ptr noundef %3)
  br label %_ZN6google8protobuf2io19EpsCopyOutputStream11EnsureSpaceEPh.exit

_ZN6google8protobuf2io19EpsCopyOutputStream11EnsureSpaceEPh.exit: ; preds = %4, %6
  %.0.i9 = phi ptr [ %7, %6 ], [ %3, %4 ]
  %8 = getelementptr inbounds nuw i8, ptr %2, i64 8
  %9 = load i64, ptr %8, align 8, !tbaa !40
  %10 = trunc i64 %9 to i32
  %11 = shl i32 %1, 3
  %12 = icmp ult i32 %11, 128
  %13 = trunc i32 %11 to i8
  br i1 %12, label %14, label %17

14:                                               ; preds = %_ZN6google8protobuf2io19EpsCopyOutputStream11EnsureSpaceEPh.exit
  %15 = or disjoint i8 %13, 2
  store i8 %15, ptr %.0.i9, align 1, !tbaa !27
  %16 = getelementptr inbounds nuw i8, ptr %.0.i9, i64 1
  br label %_ZN6google8protobuf2io19EpsCopyOutputStream12UnsafeVarintIjEEPhT_S4_.exit

17:                                               ; preds = %_ZN6google8protobuf2io19EpsCopyOutputStream11EnsureSpaceEPh.exit
  %18 = or i8 %13, -126
  store i8 %18, ptr %.0.i9, align 1, !tbaa !27
  %19 = lshr i32 %11, 7
  %20 = icmp ult i32 %11, 16384
  br i1 %20, label %21, label %25

21:                                               ; preds = %17
  %22 = trunc nuw nsw i32 %19 to i8
  %23 = getelementptr inbounds nuw i8, ptr %.0.i9, i64 1
  store i8 %22, ptr %23, align 1, !tbaa !27
  %24 = getelementptr inbounds nuw i8, ptr %.0.i9, i64 2
  br label %_ZN6google8protobuf2io19EpsCopyOutputStream12UnsafeVarintIjEEPhT_S4_.exit

25:                                               ; preds = %17
  %26 = getelementptr inbounds nuw i8, ptr %.0.i9, i64 1
  br label %27

27:                                               ; preds = %27, %25
  %.020.i = phi i32 [ %19, %25 ], [ %30, %27 ]
  %.0.i8 = phi ptr [ %26, %25 ], [ %31, %27 ]
  %28 = trunc i32 %.020.i to i8
  %29 = or i8 %28, -128
  store i8 %29, ptr %.0.i8, align 1, !tbaa !27
  %30 = lshr i32 %.020.i, 7
  %31 = getelementptr inbounds nuw i8, ptr %.0.i8, i64 1
  %32 = icmp samesign ugt i32 %.020.i, 16383
  br i1 %32, label %27, label %33, !prof !59, !llvm.loop !67

33:                                               ; preds = %27
  %34 = trunc nuw nsw i32 %30 to i8
  %35 = getelementptr inbounds nuw i8, ptr %.0.i8, i64 2
  store i8 %34, ptr %31, align 1, !tbaa !27
  br label %_ZN6google8protobuf2io19EpsCopyOutputStream12UnsafeVarintIjEEPhT_S4_.exit

_ZN6google8protobuf2io19EpsCopyOutputStream12UnsafeVarintIjEEPhT_S4_.exit: ; preds = %14, %21, %33
  %.021.i = phi ptr [ %16, %14 ], [ %24, %21 ], [ %35, %33 ]
  %36 = icmp ugt i32 %10, 127
  br i1 %36, label %.lr.ph, label %_ZN6google8protobuf2io19EpsCopyOutputStream15UnsafeWriteSizeEjPh.exit, !prof !68

.lr.ph:                                           ; preds = %_ZN6google8protobuf2io19EpsCopyOutputStream12UnsafeVarintIjEEPhT_S4_.exit, %.lr.ph
  %.0.i13 = phi ptr [ %40, %.lr.ph ], [ %.021.i, %_ZN6google8protobuf2io19EpsCopyOutputStream12UnsafeVarintIjEEPhT_S4_.exit ]
  %.07.i12 = phi i32 [ %39, %.lr.ph ], [ %10, %_ZN6google8protobuf2io19EpsCopyOutputStream12UnsafeVarintIjEEPhT_S4_.exit ]
  %37 = trunc i32 %.07.i12 to i8
  %38 = or i8 %37, -128
  store i8 %38, ptr %.0.i13, align 1, !tbaa !27
  %39 = lshr i32 %.07.i12, 7
  %40 = getelementptr inbounds nuw i8, ptr %.0.i13, i64 1
  %41 = icmp ugt i32 %.07.i12, 16383
  br i1 %41, label %.lr.ph, label %_ZN6google8protobuf2io19EpsCopyOutputStream15UnsafeWriteSizeEjPh.exit, !prof !69, !llvm.loop !70

_ZN6google8protobuf2io19EpsCopyOutputStream15UnsafeWriteSizeEjPh.exit: ; preds = %.lr.ph, %_ZN6google8protobuf2io19EpsCopyOutputStream12UnsafeVarintIjEEPhT_S4_.exit
  %.07.i.lcssa = phi i32 [ %10, %_ZN6google8protobuf2io19EpsCopyOutputStream12UnsafeVarintIjEEPhT_S4_.exit ], [ %39, %.lr.ph ]
  %.0.i.lcssa = phi ptr [ %.021.i, %_ZN6google8protobuf2io19EpsCopyOutputStream12UnsafeVarintIjEEPhT_S4_.exit ], [ %40, %.lr.ph ]
  %42 = trunc nuw nsw i32 %.07.i.lcssa to i8
  %43 = getelementptr inbounds nuw i8, ptr %.0.i.lcssa, i64 1
  store i8 %42, ptr %.0.i.lcssa, align 1, !tbaa !27
  %44 = load ptr, ptr %2, align 8, !tbaa !36
  %45 = load ptr, ptr %0, align 8, !tbaa !57
  %46 = ptrtoint ptr %45 to i64
  %47 = ptrtoint ptr %43 to i64
  %48 = sub i64 %46, %47
  %sext = shl i64 %9, 32
  %49 = ashr exact i64 %sext, 32
  %50 = icmp slt i64 %48, %49
  br i1 %50, label %51, label %53, !prof !59

51:                                               ; preds = %_ZN6google8protobuf2io19EpsCopyOutputStream15UnsafeWriteSizeEjPh.exit
  %52 = tail call noundef ptr @_ZN6google8protobuf2io19EpsCopyOutputStream16WriteRawFallbackEPKviPh(ptr noundef nonnull align 8 dereferenceable(59) %0, ptr noundef %44, i32 noundef %10, ptr noundef nonnull %43)
  br label %_ZN6google8protobuf2io19EpsCopyOutputStream8WriteRawEPKviPh.exit

53:                                               ; preds = %_ZN6google8protobuf2io19EpsCopyOutputStream15UnsafeWriteSizeEjPh.exit
  tail call void @llvm.memcpy.p0.p0.i64(ptr nonnull align 1 %43, ptr align 1 %44, i64 %49, i1 false)
  %54 = getelementptr inbounds i8, ptr %43, i64 %49
  br label %_ZN6google8protobuf2io19EpsCopyOutputStream8WriteRawEPKviPh.exit

_ZN6google8protobuf2io19EpsCopyOutputStream8WriteRawEPKviPh.exit: ; preds = %51, %53
  %.0.i10 = phi ptr [ %52, %51 ], [ %54, %53 ]
  ret ptr %.0.i10
}